target datalayout = "e-m:e-p270:32:32-p271:32:32-p272:64:64-i64:64-i128:128-f80:128-n8:16:32:64-S128"
target triple = "x86_64-pc-linux-gnu"

%struct.DdManager = type { %struct.DdNode, ptr, ptr, ptr, ptr, ptr, ptr, ptr, i32, i32, double, double, double, i32, i32, i32, i32, i32, i32, ptr, ptr, %struct.DdSubtable, i32, i32, i32, i32, i32, i32, i32, double, i32, i32, i32, ptr, i64, double, i32, ptr, ptr, ptr, ptr, ptr, ptr, ptr, i32, ptr, ptr, ptr, ptr, ptr, ptr, i32, i32, i32, double, i32, i32, i32, i32, double, double, i32, i32, i32, i32, i32, i32, i32, i32, i32, ptr, ptr, i32, i32, i32, i32, i32, i32, ptr, ptr, ptr, ptr, ptr, ptr, ptr, ptr, i32, i64, i64, i64, i32, i64, i64, double, double, double, double, double, double, i32, ptr, ptr, i64 }
%struct.DdNode = type { i32, i32, ptr, %union.anon, i64 }
%union.anon = type { %struct.DdChildren }
%struct.DdChildren = type { ptr, ptr }
%struct.DdSubtable = type { ptr, i32, i32, i32, i32, i32, i32, i32, i32, i32, i32, i32 }

; Function Attrs: nounwind uwtable
define i32 @Cudd_bddIsPiVar(ptr noundef %0, i32 noundef %1) #0 {
  %3 = alloca i32, align 4
  %4 = alloca ptr, align 8
  %5 = alloca i32, align 4
  store ptr %0, ptr %4, align 8
  store i32 %1, ptr %5, align 4
  %6 = load i32, ptr %5, align 4
  %7 = load ptr, ptr %4, align 8
  %8 = getelementptr inbounds %struct.DdManager, ptr %7, i32 0, i32 15
  %9 = load i32, ptr %8, align 8
  %10 = icmp sge i32 %6, %9
  br i1 %10, label %14, label %11

11:                                               ; preds = %2
  %12 = load i32, ptr %5, align 4
  %13 = icmp slt i32 %12, 0
  br i1 %13, label %14, label %15

14:                                               ; preds = %11, %2
  store i32 -1, ptr %3, align 4
  br label %32

15:                                               ; preds = %11
  %16 = load ptr, ptr %4, align 8
  %17 = getelementptr inbounds %struct.DdManager, ptr %16, i32 0, i32 19
  %18 = load ptr, ptr %17, align 8
  %19 = load ptr, ptr %4, align 8
  %20 = getelementptr inbounds %struct.DdManager, ptr %19, i32 0, i32 37
  %21 = load ptr, ptr %20, align 8
  %22 = load i32, ptr %5, align 4
  %23 = sext i32 %22 to i64
  %24 = getelementptr inbounds i32, ptr %21, i64 %23
  %25 = load i32, ptr %24, align 4
  %26 = sext i32 %25 to i64
  %27 = getelementptr inbounds %struct.DdSubtable, ptr %18, i64 %26
  %28 = getelementptr inbounds %struct.DdSubtable, ptr %27, i32 0, i32 8
  %29 = load i32, ptr %28, align 4
  %30 = icmp eq i32 %29, 0
  %31 = zext i1 %30 to i32
  store i32 %31, ptr %3, align 4
  br label %32

32:                                               ; preds = %15, %14
  %33 = load i32, ptr %3, align 4
  ret i32 %33
}